; Function Attrs: mustprogress nounwind uwtable
define void @_ZNK5faiss17EnumeratedVectors12encode_multiEmPKfPm(ptr noundef nonnull align 8 dereferenceable(20) %0, i64 noundef %1, ptr noundef %2, ptr noundef %3) local_unnamed_addr #13 align 2 {
  %5 = alloca i64, align 8
  %6 = alloca ptr, align 8
  %7 = alloca ptr, align 8
  %8 = alloca i32, align 4
  %9 = tail call i32 @__kmpc_global_thread_num(ptr nonnull @3)
  store i64 %1, ptr %5, align 8, !tbaa !44
  store ptr %2, ptr %6, align 8, !tbaa !98
  store ptr %3, ptr %7, align 8, !tbaa !99
  %10 = icmp ugt i64 %1, 1000
  br i1 %10, label %11, label %12

11:                                               ; preds = %4
  call void (ptr, i32, ptr, ...) @__kmpc_fork_call(ptr nonnull @3, i32 4, ptr nonnull @_ZNK5faiss17EnumeratedVectors12encode_multiEmPKfPm.omp_outlined, ptr nonnull %5, ptr nonnull %7, ptr nonnull %0, ptr nonnull %6)
  br label %13

12:                                               ; preds = %4
  tail call void @__kmpc_serialized_parallel(ptr nonnull @3, i32 %9)
  store i32 %9, ptr %8, align 4, !tbaa !45
  call void @_ZNK5faiss17EnumeratedVectors12encode_multiEmPKfPm.omp_outlined(ptr nonnull %8, ptr nonnull poison, ptr %5, ptr %7, ptr nonnull %0, ptr %6) #15
  tail call void @__kmpc_end_serialized_parallel(ptr nonnull @3, i32 %9)
  br label %13

13:                                               ; preds = %12, %11
  ret void
}